Certificate:
    Data:
        Version: 3 (0x2)
        Serial Number: 5 (0x5)
        Signature Algorithm: sha256WithRSAEncryption
        Issuer: C=GB, ST=Derbyshire, O=Mosquitto Project, OU=Testing, CN=Signing CA
        Validity
            Not Before: Feb 25 14:54:19 2020 GMT
            Not After : Feb 23 14:54:19 2025 GMT
        Subject: C=GB, ST=Nottinghamshire, L=Nottingham, O=Server, OU=Production, CN=test client revoked
        Subject Public Key Info:
            Public Key Algorithm: rsaEncryption
                RSA Public-Key: (2048 bit)
                Modulus:
                    00:d3:04:65:0d:da:e3:e6:66:d2:cc:40:05:24:fe:
                    17:67:40:bb:6c:35:dd:18:2c:70:7e:20:d1:00:26:
                    56:b7:1b:4e:e6:3e:8c:6c:0d:e4:d2:c0:dd:71:30:
                    02:f7:a0:83:79:0f:15:94:cd:a3:aa:c7:d4:e3:15:
                    af:0a:1a:b3:b8:54:b8:eb:f3:6b:72:3b:d3:f4:0b:
                    c6:4c:a9:79:58:95:53:a3:4a:31:81:97:31:a1:67:
                    f7:4d:9c:8b:02:b2:8d:79:b2:b1:87:3f:35:75:7e:
                    d1:04:6b:fb:7f:44:d7:3c:c2:4b:73:99:ee:61:a0:
                    54:2f:47:a4:62:e3:e6:0c:bb:1a:88:8c:a1:94:8f:
                    b5:79:d5:bb:be:75:f8:a7:e1:56:8b:dc:0f:90:9b:
                    94:45:50:fd:0b:7c:a9:bf:17:5a:0a:02:b4:15:3c:
                    88:fa:93:5f:1b:20:8a:c3:aa:c8:18:d1:02:27:38:
                    34:38:8c:ed:f7:58:50:20:53:9e:29:5e:3c:e9:f6:
                    cc:98:37:1c:e4:24:7f:2f:44:39:42:31:7c:30:13:
                    0f:42:2c:c8:e1:53:ac:05:4b:e3:bd:7b:05:7a:d3:
                    c1:14:ee:c3:06:75:64:5d:11:a6:be:4d:53:8d:06:
                    04:1f:1e:14:a7:8b:53:b9:aa:c3:97:c9:3c:8a:45:
                    6b:05
                Exponent: 65537 (0x10001)
        X509v3 extensions:
            X509v3 Basic Constraints: 
                CA:FALSE
            Netscape Comment: 
                OpenSSL Generated Certificate
            X509v3 Subject Key Identifier: 
                4B:8F:CC:F4:64:26:0C:0A:37:2B:D1:18:76:9D:AF:B7:D6:19:47:92
            X509v3 Authority Key Identifier: 
                keyid:AA:5A:5B:1C:91:32:9B:3F:9B:C3:42:6C:D2:68:F6:A7:E0:CF:BE:E0

    Signature Algorithm: sha256WithRSAEncryption
         13:0e:0b:71:b7:f3:53:f9:4e:7b:19:20:89:4e:a2:bf:e3:a2:
         5d:66:35:ba:02:ca:b5:b7:39:3f:4f:5b:47:b9:7a:14:c6:83:
         28:02:2a:fe:68:56:d1:08:8d:e1:a0:c0:8b:8a:38:92:41:ba:
         79:11:d4:df:8b:f5:1a:bd:ae:59:97:41:8c:4c:de:28:87:ce:
         fb:9e:ad:fb:22:48:d4:3d:9c:60:96:e5:35:71:b9:bc:24:ec:
         11:e5:c8:96:1c:b1:ec:96:26:32:91:ef:a9:d9:d9:b8:3f:92:
         9e:61:54:d7:b5:2d:f5:ac:89:4a:49:3e:8f:a9:b7:e2:39:7d:
         98:5f:21:25:0c:71:16:e7:12:d5:e5:9c:01:6b:a8:50:65:ab:
         48:db:a8:04:c1:ec:3e:ea:2f:54:30:f8:38:0c:90:fc:71:68:
         56:98:a9:d4:b7:0e:bb:66:a9:fc:24:50:0b:b9:46:cf:45:56:
         86:0c:7d:b9:e2:9b:ec:36:e4:c9:fd:96:a6:b0:f7:f3:c9:d4:
         74:8e:6a:68:5a:2e:6d:6f:78:26:af:93:7d:9c:53:73:92:b5:
         1d:c1:77:52:ea:2d:21:06:b6:3a:71:be:59:c9:51:a8:fe:89:
         fc:6c:e3:7e:5e:46:93:4c:eb:4f:14:1d:e8:05:99:95:7c:49:
         40:c9:db:81
-----BEGIN CERTIFICATE-----
MIID3DCCAsSgAwIBAgIBBTANBgkqhkiG9w0BAQsFADBlMQswCQYDVQQGEwJHQjET
MBEGA1UECAwKRGVyYnlzaGlyZTEaMBgGA1UECgwRTW9zcXVpdHRvIFByb2plY3Qx
EDAOBgNVBAsMB1Rlc3RpbmcxEzARBgNVBAMMClNpZ25pbmcgQ0EwHhcNMjAwMjI1
MTQ1NDE5WhcNMjUwMjIzMTQ1NDE5WjCBgDELMAkGA1UEBhMCR0IxGDAWBgNVBAgM
D05vdHRpbmdoYW1zaGlyZTETMBEGA1UEBwwKTm90dGluZ2hhbTEPMA0GA1UECgwG
U2VydmVyMRMwEQYDVQQLDApQcm9kdWN0aW9uMRwwGgYDVQQDDBN0ZXN0IGNsaWVu
dCByZXZva2VkMIIBIjANBgkqhkiG9w0BAQEFAAOCAQ8AMIIBCgKCAQEA0wRlDdrj
5mbSzEAFJP4XZ0C7bDXdGCxwfiDRACZWtxtO5j6MbA3k0sDdcTAC96CDeQ8VlM2j
qsfU4xWvChqzuFS46/NrcjvT9AvGTKl5WJVTo0oxgZcxoWf3TZyLArKNebKxhz81
dX7RBGv7f0TXPMJLc5nuYaBUL0ekYuPmDLsaiIyhlI+1edW7vnX4p+FWi9wPkJuU
RVD9C3ypvxdaCgK0FTyI+pNfGyCKw6rIGNECJzg0OIzt91hQIFOeKV486fbMmDcc
5CR/L0Q5QjF8MBMPQizI4VOsBUvjvXsFetPBFO7DBnVkXRGmvk1TjQYEHx4Up4tT
uarDl8k8ikVrBQIDAQABo3sweTAJBgNVHRMEAjAAMCwGCWCGSAGG+EIBDQQfFh1P
cGVuU1NMIEdlbmVyYXRlZCBDZXJ0aWZpY2F0ZTAdBgNVHQ4EFgQUS4/M9GQmDAo3
K9EYdp2vt9YZR5IwHwYDVR0jBBgwFoAUqlpbHJEymz+bw0Js0mj2p+DPvuAwDQYJ
KoZIhvcNAQELBQADggEBABMOC3G381P5TnsZIIlOor/jol1mNboCyrW3OT9PW0e5
ehTGgygCKv5oVtEIjeGgwIuKOJJBunkR1N+L9Rq9rlmXQYxM3iiHzvuerfsiSNQ9
nGCW5TVxubwk7BHlyJYcseyWJjKR76nZ2bg/kp5hVNe1LfWsiUpJPo+pt+I5fZhf
ISUMcRbnEtXlnAFrqFBlq0jbqATB7D7qL1Qw+DgMkPxxaFaYqdS3DrtmqfwkUAu5
Rs9FVoYMfbnim+w25Mn9lqaw9/PJ1HSOamhaLm1veCavk32cU3OStR3Bd1LqLSEG
tjpxvlnJUaj+ifxs435eRpNM608UHegFmZV8SUDJ24E=
-----END CERTIFICATE-----
