Certificate:
    Data:
        Version: 3 (0x2)
        Serial Number: 4 (0x4)
        Signature Algorithm: sha256WithRSAEncryption
        Issuer: C=GB, ST=Derbyshire, O=Mosquitto Project, OU=Testing, CN=Signing CA
        Validity
            Not Before: Aug 20 00:00:00 2012 GMT
            Not After : Aug 21 00:00:00 2012 GMT
        Subject: C=GB, ST=Nottinghamshire, L=Nottingham, O=Server, OU=Production, CN=test client expired
        Subject Public Key Info:
            Public Key Algorithm: rsaEncryption
                RSA Public-Key: (2048 bit)
                Modulus:
                    00:d0:5a:fb:75:01:67:ef:ce:6a:66:1b:44:11:68:
                    0d:49:d1:8e:68:39:f3:a8:71:38:c3:1f:7b:ff:77:
                    b7:0f:2e:e8:87:db:be:48:5c:12:6f:ba:fd:3c:22:
                    ec:7b:dd:2f:47:42:c5:db:9a:1b:8e:c3:9e:3e:c1:
                    59:53:19:69:7d:37:f8:70:75:b4:eb:28:09:4e:88:
                    dd:b1:0f:21:fc:4b:33:98:2a:9a:e6:ed:8d:2a:7b:
                    b4:b7:c9:53:28:c8:76:69:35:f2:2e:3d:31:2c:4b:
                    51:f9:2c:73:b9:ab:26:01:7e:8c:ef:7f:33:ee:99:
                    ca:ad:61:9f:60:3d:ac:11:c8:09:7b:fd:31:dd:7e:
                    7e:d8:68:69:49:a8:2e:29:f0:9f:61:24:b7:63:5d:
                    98:93:73:96:7e:6f:a6:c2:3b:05:05:9c:82:eb:87:
                    dd:f4:56:02:c2:ef:1e:34:02:0a:9c:9d:9a:7e:0c:
                    67:9b:91:74:a0:6e:5e:f6:52:5b:f7:f3:b7:0e:fe:
                    4e:0e:10:e4:fa:dc:4b:91:62:b4:49:42:6d:ea:84:
                    87:4a:89:8e:0d:8a:42:f2:6c:82:a1:93:bd:4d:a2:
                    f0:ad:0f:ba:f7:6f:60:b7:7a:1b:9a:b5:e6:41:92:
                    d7:3b:37:c6:79:b1:70:9a:6b:35:6a:42:3a:f1:20:
                    90:b7
                Exponent: 65537 (0x10001)
        X509v3 extensions:
            X509v3 Basic Constraints: 
                CA:FALSE
            Netscape Comment: 
                OpenSSL Generated Certificate
            X509v3 Subject Key Identifier: 
                74:67:BC:4D:15:27:BF:FF:E6:FF:20:B2:FE:9E:D5:B4:A2:57:D1:78
            X509v3 Authority Key Identifier: 
                keyid:AA:5A:5B:1C:91:32:9B:3F:9B:C3:42:6C:D2:68:F6:A7:E0:CF:BE:E0

    Signature Algorithm: sha256WithRSAEncryption
         62:fd:1a:03:bc:1a:45:d0:ac:c1:4c:61:08:d0:df:d4:3f:8e:
         85:f5:6c:ca:f0:ac:75:f9:56:54:f2:e2:17:95:e2:40:be:b3:
         cf:6e:c9:ff:db:12:cb:cd:c9:21:9a:79:35:45:2b:98:e7:38:
         4d:a8:f1:39:db:5f:e4:fd:7e:f3:da:24:77:86:3a:1c:ab:f1:
         60:af:33:ed:5b:7a:e8:cb:18:0c:7c:d7:32:af:50:8b:9d:74:
         53:38:2f:31:9b:16:fc:99:c5:36:b7:4a:bd:96:38:27:96:b2:
         ba:9b:87:8e:48:2a:d7:3d:40:00:8f:54:8e:00:c7:8d:b8:97:
         0c:3d:d5:67:5c:31:8d:ac:40:7a:27:86:a7:88:ac:90:ac:eb:
         ae:e3:35:dd:b2:03:ae:8b:c0:9d:a3:32:ac:d7:39:f2:b7:d2:
         f8:d2:f8:76:4d:77:cf:df:fd:e6:d6:7c:df:67:3d:21:01:e2:
         45:d2:59:47:e6:f6:08:99:13:7b:ac:f9:ec:51:0d:8e:68:83:
         7c:82:84:3d:03:24:dd:db:4c:8d:5a:44:8f:93:de:ea:14:b5:
         8e:e4:65:02:a4:98:4a:20:eb:07:01:b0:80:9e:2c:52:00:c8:
         f2:9e:60:8e:72:67:57:97:44:7f:65:f7:2b:19:95:e6:c3:38:
         80:39:66:cd
-----BEGIN CERTIFICATE-----
MIID3DCCAsSgAwIBAgIBBDANBgkqhkiG9w0BAQsFADBlMQswCQYDVQQGEwJHQjET
MBEGA1UECAwKRGVyYnlzaGlyZTEaMBgGA1UECgwRTW9zcXVpdHRvIFByb2plY3Qx
EDAOBgNVBAsMB1Rlc3RpbmcxEzARBgNVBAMMClNpZ25pbmcgQ0EwHhcNMTIwODIw
MDAwMDAwWhcNMTIwODIxMDAwMDAwWjCBgDELMAkGA1UEBhMCR0IxGDAWBgNVBAgM
D05vdHRpbmdoYW1zaGlyZTETMBEGA1UEBwwKTm90dGluZ2hhbTEPMA0GA1UECgwG
U2VydmVyMRMwEQYDVQQLDApQcm9kdWN0aW9uMRwwGgYDVQQDDBN0ZXN0IGNsaWVu
dCBleHBpcmVkMIIBIjANBgkqhkiG9w0BAQEFAAOCAQ8AMIIBCgKCAQEA0Fr7dQFn
785qZhtEEWgNSdGOaDnzqHE4wx97/3e3Dy7oh9u+SFwSb7r9PCLse90vR0LF25ob
jsOePsFZUxlpfTf4cHW06ygJTojdsQ8h/EszmCqa5u2NKnu0t8lTKMh2aTXyLj0x
LEtR+SxzuasmAX6M738z7pnKrWGfYD2sEcgJe/0x3X5+2GhpSaguKfCfYSS3Y12Y
k3OWfm+mwjsFBZyC64fd9FYCwu8eNAIKnJ2afgxnm5F0oG5e9lJb9/O3Dv5ODhDk
+txLkWK0SUJt6oSHSomODYpC8myCoZO9TaLwrQ+6929gt3obmrXmQZLXOzfGebFw
mms1akI68SCQtwIDAQABo3sweTAJBgNVHRMEAjAAMCwGCWCGSAGG+EIBDQQfFh1P
cGVuU1NMIEdlbmVyYXRlZCBDZXJ0aWZpY2F0ZTAdBgNVHQ4EFgQUdGe8TRUnv//m
/yCy/p7VtKJX0XgwHwYDVR0jBBgwFoAUqlpbHJEymz+bw0Js0mj2p+DPvuAwDQYJ
KoZIhvcNAQELBQADggEBAGL9GgO8GkXQrMFMYQjQ39Q/joX1bMrwrHX5VlTy4heV
4kC+s89uyf/bEsvNySGaeTVFK5jnOE2o8TnbX+T9fvPaJHeGOhyr8WCvM+1beujL
GAx81zKvUIuddFM4LzGbFvyZxTa3Sr2WOCeWsrqbh45IKtc9QACPVI4Ax424lww9
1WdcMY2sQHonhqeIrJCs667jNd2yA66LwJ2jMqzXOfK30vjS+HZNd8/f/ebWfN9n
PSEB4kXSWUfm9giZE3us+exRDY5og3yChD0DJN3bTI1aRI+T3uoUtY7kZQKkmEog
6wcBsICeLFIAyPKeYI5yZ1eXRH9l9ysZlebDOIA5Zs0=
-----END CERTIFICATE-----
